target datalayout = "e-m:e-p270:32:32-p271:32:32-p272:64:64-i64:64-i128:128-f80:128-n8:16:32:64-S128"
target triple = "x86_64-pc-linux-gnu"

%struct.SnapBuild = type { i32, ptr, i32, i32, i64, i64, i32, i8, i8, ptr, i64, ptr, i32, %struct.anon, %struct.anon.0 }
%struct.anon = type { i64, i64, i8, ptr }
%struct.anon.0 = type { i64, ptr }
%struct.SnapshotData = type { i32, i32, i32, ptr, i32, ptr, i32, i8, i8, i8, i32, i32, ptr, i32, i32, %struct.pairingheap_node, i64 }
%struct.pairingheap_node = type { ptr, ptr, ptr }

; Function Attrs: nounwind uwtable
define internal void @SnapBuildSnapIncRefcount(ptr noundef %0) #0 {
  %2 = alloca ptr, align 8
  store ptr %0, ptr %2, align 8
  %3 = load ptr, ptr %2, align 8
  %4 = getelementptr inbounds nuw %struct.SnapshotData, ptr %3, i32 0, i32 13
  %5 = load i32, ptr %4, align 8
  %6 = add i32 %5, 1
  store i32 %6, ptr %4, align 8
  ret void
}

; Function Attrs: nounwind uwtable
define internal ptr @SnapBuildBuildSnapshot(ptr noundef %0) #0 {
  %2 = alloca ptr, align 8
  %3 = alloca ptr, align 8
  %4 = alloca i64, align 8
  store ptr %0, ptr %2, align 8
  call void @llvm.lifetime.start.p0(i64 8, ptr %3) #9
  call void @llvm.lifetime.start.p0(i64 8, ptr %4) #9
  %5 = load ptr, ptr %2, align 8
  %6 = getelementptr inbounds nuw %struct.SnapBuild, ptr %5, i32 0, i32 13
  %7 = getelementptr inbounds nuw %struct.anon, ptr %6, i32 0, i32 0
  %8 = load i64, ptr %7, align 8
  %9 = mul i64 4, %8
  %10 = add i64 104, %9
  %11 = add i64 %10, 4
  store i64 %11, ptr %4, align 8
  %12 = load ptr, ptr %2, align 8
  %13 = getelementptr inbounds nuw %struct.SnapBuild, ptr %12, i32 0, i32 1
  %14 = load ptr, ptr %13, align 8
  %15 = load i64, ptr %4, align 8
  %16 = call ptr @MemoryContextAllocZero(ptr noundef %14, i64 noundef %15)
  store ptr %16, ptr %3, align 8
  %17 = load ptr, ptr %3, align 8
  %18 = getelementptr inbounds nuw %struct.SnapshotData, ptr %17, i32 0, i32 0
  store i32 5, ptr %18, align 8
  %19 = load ptr, ptr %2, align 8
  %20 = getelementptr inbounds nuw %struct.SnapBuild, ptr %19, i32 0, i32 2
  %21 = load i32, ptr %20, align 8
  %22 = load ptr, ptr %3, align 8
  %23 = getelementptr inbounds nuw %struct.SnapshotData, ptr %22, i32 0, i32 1
  store i32 %21, ptr %23, align 4
  %24 = load ptr, ptr %2, align 8
  %25 = getelementptr inbounds nuw %struct.SnapBuild, ptr %24, i32 0, i32 3
  %26 = load i32, ptr %25, align 4
  %27 = load ptr, ptr %3, align 8
  %28 = getelementptr inbounds nuw %struct.SnapshotData, ptr %27, i32 0, i32 2
  store i32 %26, ptr %28, align 8
  %29 = load ptr, ptr %3, align 8
  %30 = getelementptr inbounds nuw i8, ptr %29, i64 104
  %31 = load ptr, ptr %3, align 8
  %32 = getelementptr inbounds nuw %struct.SnapshotData, ptr %31, i32 0, i32 3
  store ptr %30, ptr %32, align 8
  %33 = load ptr, ptr %2, align 8
  %34 = getelementptr inbounds nuw %struct.SnapBuild, ptr %33, i32 0, i32 13
  %35 = getelementptr inbounds nuw %struct.anon, ptr %34, i32 0, i32 0
  %36 = load i64, ptr %35, align 8
  %37 = trunc i64 %36 to i32
  %38 = load ptr, ptr %3, align 8
  %39 = getelementptr inbounds nuw %struct.SnapshotData, ptr %38, i32 0, i32 4
  store i32 %37, ptr %39, align 8
  %40 = load ptr, ptr %3, align 8
  %41 = getelementptr inbounds nuw %struct.SnapshotData, ptr %40, i32 0, i32 3
  %42 = load ptr, ptr %41, align 8
  %43 = load ptr, ptr %2, align 8
  %44 = getelementptr inbounds nuw %struct.SnapBuild, ptr %43, i32 0, i32 13
  %45 = getelementptr inbounds nuw %struct.anon, ptr %44, i32 0, i32 3
  %46 = load ptr, ptr %45, align 8
  %47 = load ptr, ptr %2, align 8
  %48 = getelementptr inbounds nuw %struct.SnapBuild, ptr %47, i32 0, i32 13
  %49 = getelementptr inbounds nuw %struct.anon, ptr %48, i32 0, i32 0
  %50 = load i64, ptr %49, align 8
  %51 = mul i64 %50, 4
  call void @llvm.memcpy.p0.p0.i64(ptr align 4 %42, ptr align 4 %46, i64 %51, i1 false)
  %52 = load ptr, ptr %3, align 8
  %53 = getelementptr inbounds nuw %struct.SnapshotData, ptr %52, i32 0, i32 3
  %54 = load ptr, ptr %53, align 8
  %55 = load ptr, ptr %3, align 8
  %56 = getelementptr inbounds nuw %struct.SnapshotData, ptr %55, i32 0, i32 4
  %57 = load i32, ptr %56, align 8
  %58 = zext i32 %57 to i64
  call void @pg_qsort(ptr noundef %54, i64 noundef %58, i64 noundef 4, ptr noundef @xidComparator)
  %59 = load ptr, ptr %3, align 8
  %60 = getelementptr inbounds nuw %struct.SnapshotData, ptr %59, i32 0, i32 6
  store i32 0, ptr %60, align 8
  %61 = load ptr, ptr %3, align 8
  %62 = getelementptr inbounds nuw %struct.SnapshotData, ptr %61, i32 0, i32 5
  store ptr null, ptr %62, align 8
  %63 = load ptr, ptr %3, align 8
  %64 = getelementptr inbounds nuw %struct.SnapshotData, ptr %63, i32 0, i32 7
  store i8 0, ptr %64, align 4
  %65 = load ptr, ptr %3, align 8
  %66 = getelementptr inbounds nuw %struct.SnapshotData, ptr %65, i32 0, i32 8
  store i8 0, ptr %66, align 1
  %67 = load ptr, ptr %3, align 8
  %68 = getelementptr inbounds nuw %struct.SnapshotData, ptr %67, i32 0, i32 9
  store i8 0, ptr %68, align 2
  %69 = load ptr, ptr %3, align 8
  %70 = getelementptr inbounds nuw %struct.SnapshotData, ptr %69, i32 0, i32 10
  store i32 0, ptr %70, align 8
  %71 = load ptr, ptr %3, align 8
  %72 = getelementptr inbounds nuw %struct.SnapshotData, ptr %71, i32 0, i32 13
  store i32 0, ptr %72, align 8
  %73 = load ptr, ptr %3, align 8
  %74 = getelementptr inbounds nuw %struct.SnapshotData, ptr %73, i32 0, i32 14
  store i32 0, ptr %74, align 4
  %75 = load ptr, ptr %3, align 8
  %76 = getelementptr inbounds nuw %struct.SnapshotData, ptr %75, i32 0, i32 16
  store i64 0, ptr %76, align 8
  %77 = load ptr, ptr %3, align 8
  call void @llvm.lifetime.end.p0(i64 8, ptr %4) #9
  call void @llvm.lifetime.end.p0(i64 8, ptr %3) #9
  ret ptr %77
}

; Function Attrs: nounwind uwtable
define dso_local ptr @SnapBuildGetOrBuildSnapshot(ptr noundef %0) #0 {
  %2 = alloca ptr, align 8
  store ptr %0, ptr %2, align 8
  %3 = load ptr, ptr %2, align 8
  %4 = getelementptr inbounds nuw %struct.SnapBuild, ptr %3, i32 0, i32 9
  %5 = load ptr, ptr %4, align 8
  %6 = icmp eq ptr %5, null
  br i1 %6, label %7, label %15

7:                                                ; preds = %1
  %8 = load ptr, ptr %2, align 8
  %9 = call ptr @SnapBuildBuildSnapshot(ptr noundef %8)
  %10 = load ptr, ptr %2, align 8
  %11 = getelementptr inbounds nuw %struct.SnapBuild, ptr %10, i32 0, i32 9
  store ptr %9, ptr %11, align 8
  %12 = load ptr, ptr %2, align 8
  %13 = getelementptr inbounds nuw %struct.SnapBuild, ptr %12, i32 0, i32 9
  %14 = load ptr, ptr %13, align 8
  call void @SnapBuildSnapIncRefcount(ptr noundef %14)
  br label %15

15:                                               ; preds = %7, %1
  %16 = load ptr, ptr %2, align 8
  %17 = getelementptr inbounds nuw %struct.SnapBuild, ptr %16, i32 0, i32 9
  %18 = load ptr, ptr %17, align 8
  ret ptr %18
}