; Function Attrs: nounwind uwtable
define dso_local ptr @SnapBuildGetOrBuildSnapshot(ptr noundef captures(none) %0) local_unnamed_addr #0 {
  %2 = getelementptr inbounds nuw i8, ptr %0, i64 48
  %3 = load ptr, ptr %2, align 8
  %4 = icmp eq ptr %3, null
  br i1 %4, label %5, label %36

5:                                                ; preds = %1
  %6 = getelementptr inbounds nuw i8, ptr %0, i64 80
  %7 = load i64, ptr %6, align 8
  %8 = shl i64 %7, 2
  %9 = add i64 %8, 108
  %10 = getelementptr inbounds nuw i8, ptr %0, i64 8
  %11 = load ptr, ptr %10, align 8
  %12 = tail call ptr @MemoryContextAllocZero(ptr noundef %11, i64 noundef %9) #14
  store i32 5, ptr %12, align 8
  %13 = getelementptr inbounds nuw i8, ptr %0, i64 16
  %14 = load i32, ptr %13, align 8
  %15 = getelementptr inbounds nuw i8, ptr %12, i64 4
  store i32 %14, ptr %15, align 4
  %16 = getelementptr inbounds nuw i8, ptr %0, i64 20
  %17 = load i32, ptr %16, align 4
  %18 = getelementptr inbounds nuw i8, ptr %12, i64 8
  store i32 %17, ptr %18, align 8
  %19 = getelementptr inbounds nuw i8, ptr %12, i64 104
  %20 = getelementptr inbounds nuw i8, ptr %12, i64 16
  store ptr %19, ptr %20, align 8
  %21 = load i64, ptr %6, align 8
  %22 = trunc i64 %21 to i32
  %23 = getelementptr inbounds nuw i8, ptr %12, i64 24
  store i32 %22, ptr %23, align 8
  %24 = getelementptr inbounds nuw i8, ptr %0, i64 104
  %25 = load ptr, ptr %24, align 8
  %26 = load i64, ptr %6, align 8
  %27 = shl i64 %26, 2
  tail call void @llvm.memcpy.p0.p0.i64(ptr nonnull align 4 %19, ptr align 4 %25, i64 %27, i1 false)
  %28 = and i64 %21, 4294967295
  tail call void @pg_qsort(ptr noundef nonnull %19, i64 noundef %28, i64 noundef 4, ptr noundef nonnull @xidComparator) #14
  %29 = getelementptr inbounds nuw i8, ptr %12, i64 32
  %30 = getelementptr inbounds nuw i8, ptr %12, i64 48
  store i32 0, ptr %30, align 8
  %31 = getelementptr inbounds nuw i8, ptr %12, i64 64
  store i32 0, ptr %31, align 8
  %32 = getelementptr inbounds nuw i8, ptr %12, i64 68
  store i32 0, ptr %32, align 4
  %33 = getelementptr inbounds nuw i8, ptr %12, i64 96
  store i64 0, ptr %33, align 8
  tail call void @llvm.memset.p0.i64(ptr noundef nonnull align 8 dereferenceable(15) %29, i8 0, i64 15, i1 false)
  store ptr %12, ptr %2, align 8
  %34 = load i32, ptr %31, align 8
  %35 = add i32 %34, 1
  store i32 %35, ptr %31, align 8
  %.pre = load ptr, ptr %2, align 8
  br label %36

36:                                               ; preds = %5, %1
  %37 = phi ptr [ %.pre, %5 ], [ %3, %1 ]
  ret ptr %37
}